ARM GAS  C:\Users\kroko\AppData\Local\Temp\ccJgzJ2r.s 			page 1


   1              		.cpu cortex-m3
   2              		.arch armv7-m
   3              		.fpu softvfp
   4              		.eabi_attribute 20, 1
   5              		.eabi_attribute 21, 1
   6              		.eabi_attribute 23, 3
   7              		.eabi_attribute 24, 1
   8              		.eabi_attribute 25, 1
   9              		.eabi_attribute 26, 1
  10              		.eabi_attribute 30, 1
  11              		.eabi_attribute 34, 1
  12              		.eabi_attribute 18, 4
  13              		.file	"stm32f1xx_hal_msp.c"
  14              		.text
  15              	.Ltext0:
  16              		.cfi_sections	.debug_frame
  17              		.file 1 "Core/Src/stm32f1xx_hal_msp.c"
  18              		.section	.text.HAL_MspInit,"ax",%progbits
  19              		.align	1
  20              		.global	HAL_MspInit
  21              		.syntax unified
  22              		.thumb
  23              		.thumb_func
  25              	HAL_MspInit:
  26              	.LFB65:
   1:Core/Src/stm32f1xx_hal_msp.c **** /* USER CODE BEGIN Header */
   2:Core/Src/stm32f1xx_hal_msp.c **** /**
   3:Core/Src/stm32f1xx_hal_msp.c ****   ******************************************************************************
   4:Core/Src/stm32f1xx_hal_msp.c ****   * @file         stm32f1xx_hal_msp.c
   5:Core/Src/stm32f1xx_hal_msp.c ****   * @brief        This file provides code for the MSP Initialization
   6:Core/Src/stm32f1xx_hal_msp.c ****   *               and de-Initialization codes.
   7:Core/Src/stm32f1xx_hal_msp.c ****   ******************************************************************************
   8:Core/Src/stm32f1xx_hal_msp.c ****   * @attention
   9:Core/Src/stm32f1xx_hal_msp.c ****   *
  10:Core/Src/stm32f1xx_hal_msp.c ****   * Copyright (c) 2025 STMicroelectronics.
  11:Core/Src/stm32f1xx_hal_msp.c ****   * All rights reserved.
  12:Core/Src/stm32f1xx_hal_msp.c ****   *
  13:Core/Src/stm32f1xx_hal_msp.c ****   * This software is licensed under terms that can be found in the LICENSE file
  14:Core/Src/stm32f1xx_hal_msp.c ****   * in the root directory of this software component.
  15:Core/Src/stm32f1xx_hal_msp.c ****   * If no LICENSE file comes with this software, it is provided AS-IS.
  16:Core/Src/stm32f1xx_hal_msp.c ****   *
  17:Core/Src/stm32f1xx_hal_msp.c ****   ******************************************************************************
  18:Core/Src/stm32f1xx_hal_msp.c ****   */
  19:Core/Src/stm32f1xx_hal_msp.c **** /* USER CODE END Header */
  20:Core/Src/stm32f1xx_hal_msp.c **** 
  21:Core/Src/stm32f1xx_hal_msp.c **** /* Includes ------------------------------------------------------------------*/
  22:Core/Src/stm32f1xx_hal_msp.c **** #include "main.h"
  23:Core/Src/stm32f1xx_hal_msp.c **** /* USER CODE BEGIN Includes */
  24:Core/Src/stm32f1xx_hal_msp.c **** 
  25:Core/Src/stm32f1xx_hal_msp.c **** /* USER CODE END Includes */
  26:Core/Src/stm32f1xx_hal_msp.c **** extern DMA_HandleTypeDef hdma_adc1;
  27:Core/Src/stm32f1xx_hal_msp.c **** 
  28:Core/Src/stm32f1xx_hal_msp.c **** /* Private typedef -----------------------------------------------------------*/
  29:Core/Src/stm32f1xx_hal_msp.c **** /* USER CODE BEGIN TD */
  30:Core/Src/stm32f1xx_hal_msp.c **** 
  31:Core/Src/stm32f1xx_hal_msp.c **** /* USER CODE END TD */
  32:Core/Src/stm32f1xx_hal_msp.c **** 
ARM GAS  C:\Users\kroko\AppData\Local\Temp\ccJgzJ2r.s 			page 2


  33:Core/Src/stm32f1xx_hal_msp.c **** /* Private define ------------------------------------------------------------*/
  34:Core/Src/stm32f1xx_hal_msp.c **** /* USER CODE BEGIN Define */
  35:Core/Src/stm32f1xx_hal_msp.c **** 
  36:Core/Src/stm32f1xx_hal_msp.c **** /* USER CODE END Define */
  37:Core/Src/stm32f1xx_hal_msp.c **** 
  38:Core/Src/stm32f1xx_hal_msp.c **** /* Private macro -------------------------------------------------------------*/
  39:Core/Src/stm32f1xx_hal_msp.c **** /* USER CODE BEGIN Macro */
  40:Core/Src/stm32f1xx_hal_msp.c **** 
  41:Core/Src/stm32f1xx_hal_msp.c **** /* USER CODE END Macro */
  42:Core/Src/stm32f1xx_hal_msp.c **** 
  43:Core/Src/stm32f1xx_hal_msp.c **** /* Private variables ---------------------------------------------------------*/
  44:Core/Src/stm32f1xx_hal_msp.c **** /* USER CODE BEGIN PV */
  45:Core/Src/stm32f1xx_hal_msp.c **** 
  46:Core/Src/stm32f1xx_hal_msp.c **** /* USER CODE END PV */
  47:Core/Src/stm32f1xx_hal_msp.c **** 
  48:Core/Src/stm32f1xx_hal_msp.c **** /* Private function prototypes -----------------------------------------------*/
  49:Core/Src/stm32f1xx_hal_msp.c **** /* USER CODE BEGIN PFP */
  50:Core/Src/stm32f1xx_hal_msp.c **** 
  51:Core/Src/stm32f1xx_hal_msp.c **** /* USER CODE END PFP */
  52:Core/Src/stm32f1xx_hal_msp.c **** 
  53:Core/Src/stm32f1xx_hal_msp.c **** /* External functions --------------------------------------------------------*/
  54:Core/Src/stm32f1xx_hal_msp.c **** /* USER CODE BEGIN ExternalFunctions */
  55:Core/Src/stm32f1xx_hal_msp.c **** 
  56:Core/Src/stm32f1xx_hal_msp.c **** /* USER CODE END ExternalFunctions */
  57:Core/Src/stm32f1xx_hal_msp.c **** 
  58:Core/Src/stm32f1xx_hal_msp.c **** /* USER CODE BEGIN 0 */
  59:Core/Src/stm32f1xx_hal_msp.c **** 
  60:Core/Src/stm32f1xx_hal_msp.c **** /* USER CODE END 0 */
  61:Core/Src/stm32f1xx_hal_msp.c **** 
  62:Core/Src/stm32f1xx_hal_msp.c **** void HAL_TIM_MspPostInit(TIM_HandleTypeDef *htim);
  63:Core/Src/stm32f1xx_hal_msp.c ****                     /**
  64:Core/Src/stm32f1xx_hal_msp.c ****   * Initializes the Global MSP.
  65:Core/Src/stm32f1xx_hal_msp.c ****   */
  66:Core/Src/stm32f1xx_hal_msp.c **** void HAL_MspInit(void)
  67:Core/Src/stm32f1xx_hal_msp.c **** {
  27              		.loc 1 67 1 view -0
  28              		.cfi_startproc
  29              		@ args = 0, pretend = 0, frame = 8
  30              		@ frame_needed = 0, uses_anonymous_args = 0
  31              		@ link register save eliminated.
  32 0000 82B0     		sub	sp, sp, #8
  33              		.cfi_def_cfa_offset 8
  68:Core/Src/stm32f1xx_hal_msp.c **** 
  69:Core/Src/stm32f1xx_hal_msp.c ****   /* USER CODE BEGIN MspInit 0 */
  70:Core/Src/stm32f1xx_hal_msp.c **** 
  71:Core/Src/stm32f1xx_hal_msp.c ****   /* USER CODE END MspInit 0 */
  72:Core/Src/stm32f1xx_hal_msp.c **** 
  73:Core/Src/stm32f1xx_hal_msp.c ****   __HAL_RCC_AFIO_CLK_ENABLE();
  34              		.loc 1 73 3 view .LVU1
  35              	.LBB2:
  36              		.loc 1 73 3 view .LVU2
  37              		.loc 1 73 3 view .LVU3
  38 0002 0E4B     		ldr	r3, .L3
  39 0004 9A69     		ldr	r2, [r3, #24]
  40 0006 42F00102 		orr	r2, r2, #1
  41 000a 9A61     		str	r2, [r3, #24]
  42              		.loc 1 73 3 view .LVU4
ARM GAS  C:\Users\kroko\AppData\Local\Temp\ccJgzJ2r.s 			page 3


  43 000c 9A69     		ldr	r2, [r3, #24]
  44 000e 02F00102 		and	r2, r2, #1
  45 0012 0092     		str	r2, [sp]
  46              		.loc 1 73 3 view .LVU5
  47 0014 009A     		ldr	r2, [sp]
  48              	.LBE2:
  49              		.loc 1 73 3 view .LVU6
  74:Core/Src/stm32f1xx_hal_msp.c ****   __HAL_RCC_PWR_CLK_ENABLE();
  50              		.loc 1 74 3 view .LVU7
  51              	.LBB3:
  52              		.loc 1 74 3 view .LVU8
  53              		.loc 1 74 3 view .LVU9
  54 0016 DA69     		ldr	r2, [r3, #28]
  55 0018 42F08052 		orr	r2, r2, #268435456
  56 001c DA61     		str	r2, [r3, #28]
  57              		.loc 1 74 3 view .LVU10
  58 001e DB69     		ldr	r3, [r3, #28]
  59 0020 03F08053 		and	r3, r3, #268435456
  60 0024 0193     		str	r3, [sp, #4]
  61              		.loc 1 74 3 view .LVU11
  62 0026 019B     		ldr	r3, [sp, #4]
  63              	.LBE3:
  64              		.loc 1 74 3 view .LVU12
  75:Core/Src/stm32f1xx_hal_msp.c **** 
  76:Core/Src/stm32f1xx_hal_msp.c ****   /* System interrupt init*/
  77:Core/Src/stm32f1xx_hal_msp.c **** 
  78:Core/Src/stm32f1xx_hal_msp.c ****   /** NOJTAG: JTAG-DP Disabled and SW-DP Enabled
  79:Core/Src/stm32f1xx_hal_msp.c ****   */
  80:Core/Src/stm32f1xx_hal_msp.c ****   __HAL_AFIO_REMAP_SWJ_NOJTAG();
  65              		.loc 1 80 3 view .LVU13
  66              	.LBB4:
  67              		.loc 1 80 3 view .LVU14
  68 0028 054A     		ldr	r2, .L3+4
  69 002a 5368     		ldr	r3, [r2, #4]
  70              	.LVL0:
  71              		.loc 1 80 3 view .LVU15
  72 002c 23F0E063 		bic	r3, r3, #117440512
  73              	.LVL1:
  74              		.loc 1 80 3 view .LVU16
  75 0030 43F00073 		orr	r3, r3, #33554432
  76              	.LVL2:
  77              		.loc 1 80 3 view .LVU17
  78 0034 5360     		str	r3, [r2, #4]
  79              	.LBE4:
  80              		.loc 1 80 3 view .LVU18
  81:Core/Src/stm32f1xx_hal_msp.c **** 
  82:Core/Src/stm32f1xx_hal_msp.c ****   /* USER CODE BEGIN MspInit 1 */
  83:Core/Src/stm32f1xx_hal_msp.c **** 
  84:Core/Src/stm32f1xx_hal_msp.c ****   /* USER CODE END MspInit 1 */
  85:Core/Src/stm32f1xx_hal_msp.c **** }
  81              		.loc 1 85 1 is_stmt 0 view .LVU19
  82 0036 02B0     		add	sp, sp, #8
  83              		.cfi_def_cfa_offset 0
  84              		@ sp needed
  85 0038 7047     		bx	lr
  86              	.L4:
  87 003a 00BF     		.align	2
ARM GAS  C:\Users\kroko\AppData\Local\Temp\ccJgzJ2r.s 			page 4


  88              	.L3:
  89 003c 00100240 		.word	1073876992
  90 0040 00000140 		.word	1073807360
  91              		.cfi_endproc
  92              	.LFE65:
  94              		.section	.text.HAL_ADC_MspInit,"ax",%progbits
  95              		.align	1
  96              		.global	HAL_ADC_MspInit
  97              		.syntax unified
  98              		.thumb
  99              		.thumb_func
 101              	HAL_ADC_MspInit:
 102              	.LVL3:
 103              	.LFB66:
  86:Core/Src/stm32f1xx_hal_msp.c **** 
  87:Core/Src/stm32f1xx_hal_msp.c **** /**
  88:Core/Src/stm32f1xx_hal_msp.c ****   * @brief ADC MSP Initialization
  89:Core/Src/stm32f1xx_hal_msp.c ****   * This function configures the hardware resources used in this example
  90:Core/Src/stm32f1xx_hal_msp.c ****   * @param hadc: ADC handle pointer
  91:Core/Src/stm32f1xx_hal_msp.c ****   * @retval None
  92:Core/Src/stm32f1xx_hal_msp.c ****   */
  93:Core/Src/stm32f1xx_hal_msp.c **** void HAL_ADC_MspInit(ADC_HandleTypeDef* hadc)
  94:Core/Src/stm32f1xx_hal_msp.c **** {
 104              		.loc 1 94 1 is_stmt 1 view -0
 105              		.cfi_startproc
 106              		@ args = 0, pretend = 0, frame = 24
 107              		@ frame_needed = 0, uses_anonymous_args = 0
 108              		.loc 1 94 1 is_stmt 0 view .LVU21
 109 0000 10B5     		push	{r4, lr}
 110              		.cfi_def_cfa_offset 8
 111              		.cfi_offset 4, -8
 112              		.cfi_offset 14, -4
 113 0002 86B0     		sub	sp, sp, #24
 114              		.cfi_def_cfa_offset 32
  95:Core/Src/stm32f1xx_hal_msp.c ****   GPIO_InitTypeDef GPIO_InitStruct = {0};
 115              		.loc 1 95 3 is_stmt 1 view .LVU22
 116              		.loc 1 95 20 is_stmt 0 view .LVU23
 117 0004 0023     		movs	r3, #0
 118 0006 0293     		str	r3, [sp, #8]
 119 0008 0393     		str	r3, [sp, #12]
 120 000a 0493     		str	r3, [sp, #16]
 121 000c 0593     		str	r3, [sp, #20]
  96:Core/Src/stm32f1xx_hal_msp.c ****   if(hadc->Instance==ADC1)
 122              		.loc 1 96 3 is_stmt 1 view .LVU24
 123              		.loc 1 96 10 is_stmt 0 view .LVU25
 124 000e 0268     		ldr	r2, [r0]
 125              		.loc 1 96 5 view .LVU26
 126 0010 214B     		ldr	r3, .L11
 127 0012 9A42     		cmp	r2, r3
 128 0014 01D0     		beq	.L9
 129              	.LVL4:
 130              	.L5:
  97:Core/Src/stm32f1xx_hal_msp.c ****   {
  98:Core/Src/stm32f1xx_hal_msp.c ****     /* USER CODE BEGIN ADC1_MspInit 0 */
  99:Core/Src/stm32f1xx_hal_msp.c **** 
 100:Core/Src/stm32f1xx_hal_msp.c ****     /* USER CODE END ADC1_MspInit 0 */
 101:Core/Src/stm32f1xx_hal_msp.c ****     /* Peripheral clock enable */
ARM GAS  C:\Users\kroko\AppData\Local\Temp\ccJgzJ2r.s 			page 5


 102:Core/Src/stm32f1xx_hal_msp.c ****     __HAL_RCC_ADC1_CLK_ENABLE();
 103:Core/Src/stm32f1xx_hal_msp.c **** 
 104:Core/Src/stm32f1xx_hal_msp.c ****     __HAL_RCC_GPIOA_CLK_ENABLE();
 105:Core/Src/stm32f1xx_hal_msp.c ****     /**ADC1 GPIO Configuration
 106:Core/Src/stm32f1xx_hal_msp.c ****     PA0-WKUP     ------> ADC1_IN0
 107:Core/Src/stm32f1xx_hal_msp.c ****     */
 108:Core/Src/stm32f1xx_hal_msp.c ****     GPIO_InitStruct.Pin = GASE_Pin;
 109:Core/Src/stm32f1xx_hal_msp.c ****     GPIO_InitStruct.Mode = GPIO_MODE_ANALOG;
 110:Core/Src/stm32f1xx_hal_msp.c ****     HAL_GPIO_Init(GASE_GPIO_Port, &GPIO_InitStruct);
 111:Core/Src/stm32f1xx_hal_msp.c **** 
 112:Core/Src/stm32f1xx_hal_msp.c ****     /* ADC1 DMA Init */
 113:Core/Src/stm32f1xx_hal_msp.c ****     /* ADC1 Init */
 114:Core/Src/stm32f1xx_hal_msp.c ****     hdma_adc1.Instance = DMA1_Channel1;
 115:Core/Src/stm32f1xx_hal_msp.c ****     hdma_adc1.Init.Direction = DMA_PERIPH_TO_MEMORY;
 116:Core/Src/stm32f1xx_hal_msp.c ****     hdma_adc1.Init.PeriphInc = DMA_PINC_DISABLE;
 117:Core/Src/stm32f1xx_hal_msp.c ****     hdma_adc1.Init.MemInc = DMA_MINC_ENABLE;
 118:Core/Src/stm32f1xx_hal_msp.c ****     hdma_adc1.Init.PeriphDataAlignment = DMA_PDATAALIGN_HALFWORD;
 119:Core/Src/stm32f1xx_hal_msp.c ****     hdma_adc1.Init.MemDataAlignment = DMA_MDATAALIGN_HALFWORD;
 120:Core/Src/stm32f1xx_hal_msp.c ****     hdma_adc1.Init.Mode = DMA_NORMAL;
 121:Core/Src/stm32f1xx_hal_msp.c ****     hdma_adc1.Init.Priority = DMA_PRIORITY_LOW;
 122:Core/Src/stm32f1xx_hal_msp.c ****     if (HAL_DMA_Init(&hdma_adc1) != HAL_OK)
 123:Core/Src/stm32f1xx_hal_msp.c ****     {
 124:Core/Src/stm32f1xx_hal_msp.c ****       Error_Handler();
 125:Core/Src/stm32f1xx_hal_msp.c ****     }
 126:Core/Src/stm32f1xx_hal_msp.c **** 
 127:Core/Src/stm32f1xx_hal_msp.c ****     __HAL_LINKDMA(hadc,DMA_Handle,hdma_adc1);
 128:Core/Src/stm32f1xx_hal_msp.c **** 
 129:Core/Src/stm32f1xx_hal_msp.c ****     /* ADC1 interrupt Init */
 130:Core/Src/stm32f1xx_hal_msp.c ****     HAL_NVIC_SetPriority(ADC1_2_IRQn, 0, 0);
 131:Core/Src/stm32f1xx_hal_msp.c ****     HAL_NVIC_EnableIRQ(ADC1_2_IRQn);
 132:Core/Src/stm32f1xx_hal_msp.c ****     /* USER CODE BEGIN ADC1_MspInit 1 */
 133:Core/Src/stm32f1xx_hal_msp.c **** 
 134:Core/Src/stm32f1xx_hal_msp.c ****     /* USER CODE END ADC1_MspInit 1 */
 135:Core/Src/stm32f1xx_hal_msp.c **** 
 136:Core/Src/stm32f1xx_hal_msp.c ****   }
 137:Core/Src/stm32f1xx_hal_msp.c **** 
 138:Core/Src/stm32f1xx_hal_msp.c **** }
 131              		.loc 1 138 1 view .LVU27
 132 0016 06B0     		add	sp, sp, #24
 133              		.cfi_remember_state
 134              		.cfi_def_cfa_offset 8
 135              		@ sp needed
 136 0018 10BD     		pop	{r4, pc}
 137              	.LVL5:
 138              	.L9:
 139              		.cfi_restore_state
 140              		.loc 1 138 1 view .LVU28
 141 001a 0446     		mov	r4, r0
 102:Core/Src/stm32f1xx_hal_msp.c **** 
 142              		.loc 1 102 5 is_stmt 1 view .LVU29
 143              	.LBB5:
 102:Core/Src/stm32f1xx_hal_msp.c **** 
 144              		.loc 1 102 5 view .LVU30
 102:Core/Src/stm32f1xx_hal_msp.c **** 
 145              		.loc 1 102 5 view .LVU31
 146 001c 03F56C43 		add	r3, r3, #60416
 147 0020 9A69     		ldr	r2, [r3, #24]
ARM GAS  C:\Users\kroko\AppData\Local\Temp\ccJgzJ2r.s 			page 6


 148 0022 42F40072 		orr	r2, r2, #512
 149 0026 9A61     		str	r2, [r3, #24]
 102:Core/Src/stm32f1xx_hal_msp.c **** 
 150              		.loc 1 102 5 view .LVU32
 151 0028 9A69     		ldr	r2, [r3, #24]
 152 002a 02F40072 		and	r2, r2, #512
 153 002e 0092     		str	r2, [sp]
 102:Core/Src/stm32f1xx_hal_msp.c **** 
 154              		.loc 1 102 5 view .LVU33
 155 0030 009A     		ldr	r2, [sp]
 156              	.LBE5:
 102:Core/Src/stm32f1xx_hal_msp.c **** 
 157              		.loc 1 102 5 view .LVU34
 104:Core/Src/stm32f1xx_hal_msp.c ****     /**ADC1 GPIO Configuration
 158              		.loc 1 104 5 view .LVU35
 159              	.LBB6:
 104:Core/Src/stm32f1xx_hal_msp.c ****     /**ADC1 GPIO Configuration
 160              		.loc 1 104 5 view .LVU36
 104:Core/Src/stm32f1xx_hal_msp.c ****     /**ADC1 GPIO Configuration
 161              		.loc 1 104 5 view .LVU37
 162 0032 9A69     		ldr	r2, [r3, #24]
 163 0034 42F00402 		orr	r2, r2, #4
 164 0038 9A61     		str	r2, [r3, #24]
 104:Core/Src/stm32f1xx_hal_msp.c ****     /**ADC1 GPIO Configuration
 165              		.loc 1 104 5 view .LVU38
 166 003a 9B69     		ldr	r3, [r3, #24]
 167 003c 03F00403 		and	r3, r3, #4
 168 0040 0193     		str	r3, [sp, #4]
 104:Core/Src/stm32f1xx_hal_msp.c ****     /**ADC1 GPIO Configuration
 169              		.loc 1 104 5 view .LVU39
 170 0042 019B     		ldr	r3, [sp, #4]
 171              	.LBE6:
 104:Core/Src/stm32f1xx_hal_msp.c ****     /**ADC1 GPIO Configuration
 172              		.loc 1 104 5 view .LVU40
 108:Core/Src/stm32f1xx_hal_msp.c ****     GPIO_InitStruct.Mode = GPIO_MODE_ANALOG;
 173              		.loc 1 108 5 view .LVU41
 108:Core/Src/stm32f1xx_hal_msp.c ****     GPIO_InitStruct.Mode = GPIO_MODE_ANALOG;
 174              		.loc 1 108 25 is_stmt 0 view .LVU42
 175 0044 0123     		movs	r3, #1
 176 0046 0293     		str	r3, [sp, #8]
 109:Core/Src/stm32f1xx_hal_msp.c ****     HAL_GPIO_Init(GASE_GPIO_Port, &GPIO_InitStruct);
 177              		.loc 1 109 5 is_stmt 1 view .LVU43
 109:Core/Src/stm32f1xx_hal_msp.c ****     HAL_GPIO_Init(GASE_GPIO_Port, &GPIO_InitStruct);
 178              		.loc 1 109 26 is_stmt 0 view .LVU44
 179 0048 0323     		movs	r3, #3
 180 004a 0393     		str	r3, [sp, #12]
 110:Core/Src/stm32f1xx_hal_msp.c **** 
 181              		.loc 1 110 5 is_stmt 1 view .LVU45
 182 004c 02A9     		add	r1, sp, #8
 183 004e 1348     		ldr	r0, .L11+4
 184              	.LVL6:
 110:Core/Src/stm32f1xx_hal_msp.c **** 
 185              		.loc 1 110 5 is_stmt 0 view .LVU46
 186 0050 FFF7FEFF 		bl	HAL_GPIO_Init
 187              	.LVL7:
 114:Core/Src/stm32f1xx_hal_msp.c ****     hdma_adc1.Init.Direction = DMA_PERIPH_TO_MEMORY;
 188              		.loc 1 114 5 is_stmt 1 view .LVU47
ARM GAS  C:\Users\kroko\AppData\Local\Temp\ccJgzJ2r.s 			page 7


 114:Core/Src/stm32f1xx_hal_msp.c ****     hdma_adc1.Init.Direction = DMA_PERIPH_TO_MEMORY;
 189              		.loc 1 114 24 is_stmt 0 view .LVU48
 190 0054 1248     		ldr	r0, .L11+8
 191 0056 134B     		ldr	r3, .L11+12
 192 0058 0360     		str	r3, [r0]
 115:Core/Src/stm32f1xx_hal_msp.c ****     hdma_adc1.Init.PeriphInc = DMA_PINC_DISABLE;
 193              		.loc 1 115 5 is_stmt 1 view .LVU49
 115:Core/Src/stm32f1xx_hal_msp.c ****     hdma_adc1.Init.PeriphInc = DMA_PINC_DISABLE;
 194              		.loc 1 115 30 is_stmt 0 view .LVU50
 195 005a 0023     		movs	r3, #0
 196 005c 4360     		str	r3, [r0, #4]
 116:Core/Src/stm32f1xx_hal_msp.c ****     hdma_adc1.Init.MemInc = DMA_MINC_ENABLE;
 197              		.loc 1 116 5 is_stmt 1 view .LVU51
 116:Core/Src/stm32f1xx_hal_msp.c ****     hdma_adc1.Init.MemInc = DMA_MINC_ENABLE;
 198              		.loc 1 116 30 is_stmt 0 view .LVU52
 199 005e 8360     		str	r3, [r0, #8]
 117:Core/Src/stm32f1xx_hal_msp.c ****     hdma_adc1.Init.PeriphDataAlignment = DMA_PDATAALIGN_HALFWORD;
 200              		.loc 1 117 5 is_stmt 1 view .LVU53
 117:Core/Src/stm32f1xx_hal_msp.c ****     hdma_adc1.Init.PeriphDataAlignment = DMA_PDATAALIGN_HALFWORD;
 201              		.loc 1 117 27 is_stmt 0 view .LVU54
 202 0060 8022     		movs	r2, #128
 203 0062 C260     		str	r2, [r0, #12]
 118:Core/Src/stm32f1xx_hal_msp.c ****     hdma_adc1.Init.MemDataAlignment = DMA_MDATAALIGN_HALFWORD;
 204              		.loc 1 118 5 is_stmt 1 view .LVU55
 118:Core/Src/stm32f1xx_hal_msp.c ****     hdma_adc1.Init.MemDataAlignment = DMA_MDATAALIGN_HALFWORD;
 205              		.loc 1 118 40 is_stmt 0 view .LVU56
 206 0064 4FF48072 		mov	r2, #256
 207 0068 0261     		str	r2, [r0, #16]
 119:Core/Src/stm32f1xx_hal_msp.c ****     hdma_adc1.Init.Mode = DMA_NORMAL;
 208              		.loc 1 119 5 is_stmt 1 view .LVU57
 119:Core/Src/stm32f1xx_hal_msp.c ****     hdma_adc1.Init.Mode = DMA_NORMAL;
 209              		.loc 1 119 37 is_stmt 0 view .LVU58
 210 006a 4FF48062 		mov	r2, #1024
 211 006e 4261     		str	r2, [r0, #20]
 120:Core/Src/stm32f1xx_hal_msp.c ****     hdma_adc1.Init.Priority = DMA_PRIORITY_LOW;
 212              		.loc 1 120 5 is_stmt 1 view .LVU59
 120:Core/Src/stm32f1xx_hal_msp.c ****     hdma_adc1.Init.Priority = DMA_PRIORITY_LOW;
 213              		.loc 1 120 25 is_stmt 0 view .LVU60
 214 0070 8361     		str	r3, [r0, #24]
 121:Core/Src/stm32f1xx_hal_msp.c ****     if (HAL_DMA_Init(&hdma_adc1) != HAL_OK)
 215              		.loc 1 121 5 is_stmt 1 view .LVU61
 121:Core/Src/stm32f1xx_hal_msp.c ****     if (HAL_DMA_Init(&hdma_adc1) != HAL_OK)
 216              		.loc 1 121 29 is_stmt 0 view .LVU62
 217 0072 C361     		str	r3, [r0, #28]
 122:Core/Src/stm32f1xx_hal_msp.c ****     {
 218              		.loc 1 122 5 is_stmt 1 view .LVU63
 122:Core/Src/stm32f1xx_hal_msp.c ****     {
 219              		.loc 1 122 9 is_stmt 0 view .LVU64
 220 0074 FFF7FEFF 		bl	HAL_DMA_Init
 221              	.LVL8:
 122:Core/Src/stm32f1xx_hal_msp.c ****     {
 222              		.loc 1 122 8 discriminator 1 view .LVU65
 223 0078 58B9     		cbnz	r0, .L10
 224              	.L7:
 127:Core/Src/stm32f1xx_hal_msp.c **** 
 225              		.loc 1 127 5 is_stmt 1 view .LVU66
 127:Core/Src/stm32f1xx_hal_msp.c **** 
ARM GAS  C:\Users\kroko\AppData\Local\Temp\ccJgzJ2r.s 			page 8


 226              		.loc 1 127 5 view .LVU67
 227 007a 094B     		ldr	r3, .L11+8
 228 007c 2362     		str	r3, [r4, #32]
 127:Core/Src/stm32f1xx_hal_msp.c **** 
 229              		.loc 1 127 5 view .LVU68
 230 007e 5C62     		str	r4, [r3, #36]
 127:Core/Src/stm32f1xx_hal_msp.c **** 
 231              		.loc 1 127 5 view .LVU69
 130:Core/Src/stm32f1xx_hal_msp.c ****     HAL_NVIC_EnableIRQ(ADC1_2_IRQn);
 232              		.loc 1 130 5 view .LVU70
 233 0080 0022     		movs	r2, #0
 234 0082 1146     		mov	r1, r2
 235 0084 1220     		movs	r0, #18
 236 0086 FFF7FEFF 		bl	HAL_NVIC_SetPriority
 237              	.LVL9:
 131:Core/Src/stm32f1xx_hal_msp.c ****     /* USER CODE BEGIN ADC1_MspInit 1 */
 238              		.loc 1 131 5 view .LVU71
 239 008a 1220     		movs	r0, #18
 240 008c FFF7FEFF 		bl	HAL_NVIC_EnableIRQ
 241              	.LVL10:
 242              		.loc 1 138 1 is_stmt 0 view .LVU72
 243 0090 C1E7     		b	.L5
 244              	.L10:
 124:Core/Src/stm32f1xx_hal_msp.c ****     }
 245              		.loc 1 124 7 is_stmt 1 view .LVU73
 246 0092 FFF7FEFF 		bl	Error_Handler
 247              	.LVL11:
 248 0096 F0E7     		b	.L7
 249              	.L12:
 250              		.align	2
 251              	.L11:
 252 0098 00240140 		.word	1073816576
 253 009c 00080140 		.word	1073809408
 254 00a0 00000000 		.word	hdma_adc1
 255 00a4 08000240 		.word	1073872904
 256              		.cfi_endproc
 257              	.LFE66:
 259              		.section	.text.HAL_ADC_MspDeInit,"ax",%progbits
 260              		.align	1
 261              		.global	HAL_ADC_MspDeInit
 262              		.syntax unified
 263              		.thumb
 264              		.thumb_func
 266              	HAL_ADC_MspDeInit:
 267              	.LVL12:
 268              	.LFB67:
 139:Core/Src/stm32f1xx_hal_msp.c **** 
 140:Core/Src/stm32f1xx_hal_msp.c **** /**
 141:Core/Src/stm32f1xx_hal_msp.c ****   * @brief ADC MSP De-Initialization
 142:Core/Src/stm32f1xx_hal_msp.c ****   * This function freeze the hardware resources used in this example
 143:Core/Src/stm32f1xx_hal_msp.c ****   * @param hadc: ADC handle pointer
 144:Core/Src/stm32f1xx_hal_msp.c ****   * @retval None
 145:Core/Src/stm32f1xx_hal_msp.c ****   */
 146:Core/Src/stm32f1xx_hal_msp.c **** void HAL_ADC_MspDeInit(ADC_HandleTypeDef* hadc)
 147:Core/Src/stm32f1xx_hal_msp.c **** {
 269              		.loc 1 147 1 view -0
 270              		.cfi_startproc
ARM GAS  C:\Users\kroko\AppData\Local\Temp\ccJgzJ2r.s 			page 9


 271              		@ args = 0, pretend = 0, frame = 0
 272              		@ frame_needed = 0, uses_anonymous_args = 0
 148:Core/Src/stm32f1xx_hal_msp.c ****   if(hadc->Instance==ADC1)
 273              		.loc 1 148 3 view .LVU75
 274              		.loc 1 148 10 is_stmt 0 view .LVU76
 275 0000 0268     		ldr	r2, [r0]
 276              		.loc 1 148 5 view .LVU77
 277 0002 0B4B     		ldr	r3, .L20
 278 0004 9A42     		cmp	r2, r3
 279 0006 00D0     		beq	.L19
 280 0008 7047     		bx	lr
 281              	.L19:
 147:Core/Src/stm32f1xx_hal_msp.c ****   if(hadc->Instance==ADC1)
 282              		.loc 1 147 1 view .LVU78
 283 000a 10B5     		push	{r4, lr}
 284              		.cfi_def_cfa_offset 8
 285              		.cfi_offset 4, -8
 286              		.cfi_offset 14, -4
 287 000c 0446     		mov	r4, r0
 149:Core/Src/stm32f1xx_hal_msp.c ****   {
 150:Core/Src/stm32f1xx_hal_msp.c ****     /* USER CODE BEGIN ADC1_MspDeInit 0 */
 151:Core/Src/stm32f1xx_hal_msp.c **** 
 152:Core/Src/stm32f1xx_hal_msp.c ****     /* USER CODE END ADC1_MspDeInit 0 */
 153:Core/Src/stm32f1xx_hal_msp.c ****     /* Peripheral clock disable */
 154:Core/Src/stm32f1xx_hal_msp.c ****     __HAL_RCC_ADC1_CLK_DISABLE();
 288              		.loc 1 154 5 is_stmt 1 view .LVU79
 289 000e 094A     		ldr	r2, .L20+4
 290 0010 9369     		ldr	r3, [r2, #24]
 291 0012 23F40073 		bic	r3, r3, #512
 292 0016 9361     		str	r3, [r2, #24]
 155:Core/Src/stm32f1xx_hal_msp.c **** 
 156:Core/Src/stm32f1xx_hal_msp.c ****     /**ADC1 GPIO Configuration
 157:Core/Src/stm32f1xx_hal_msp.c ****     PA0-WKUP     ------> ADC1_IN0
 158:Core/Src/stm32f1xx_hal_msp.c ****     */
 159:Core/Src/stm32f1xx_hal_msp.c ****     HAL_GPIO_DeInit(GASE_GPIO_Port, GASE_Pin);
 293              		.loc 1 159 5 view .LVU80
 294 0018 0121     		movs	r1, #1
 295 001a 0748     		ldr	r0, .L20+8
 296              	.LVL13:
 297              		.loc 1 159 5 is_stmt 0 view .LVU81
 298 001c FFF7FEFF 		bl	HAL_GPIO_DeInit
 299              	.LVL14:
 160:Core/Src/stm32f1xx_hal_msp.c **** 
 161:Core/Src/stm32f1xx_hal_msp.c ****     /* ADC1 DMA DeInit */
 162:Core/Src/stm32f1xx_hal_msp.c ****     HAL_DMA_DeInit(hadc->DMA_Handle);
 300              		.loc 1 162 5 is_stmt 1 view .LVU82
 301 0020 206A     		ldr	r0, [r4, #32]
 302 0022 FFF7FEFF 		bl	HAL_DMA_DeInit
 303              	.LVL15:
 163:Core/Src/stm32f1xx_hal_msp.c **** 
 164:Core/Src/stm32f1xx_hal_msp.c ****     /* ADC1 interrupt DeInit */
 165:Core/Src/stm32f1xx_hal_msp.c ****     HAL_NVIC_DisableIRQ(ADC1_2_IRQn);
 304              		.loc 1 165 5 view .LVU83
 305 0026 1220     		movs	r0, #18
 306 0028 FFF7FEFF 		bl	HAL_NVIC_DisableIRQ
 307              	.LVL16:
 166:Core/Src/stm32f1xx_hal_msp.c ****     /* USER CODE BEGIN ADC1_MspDeInit 1 */
ARM GAS  C:\Users\kroko\AppData\Local\Temp\ccJgzJ2r.s 			page 10


 167:Core/Src/stm32f1xx_hal_msp.c **** 
 168:Core/Src/stm32f1xx_hal_msp.c ****     /* USER CODE END ADC1_MspDeInit 1 */
 169:Core/Src/stm32f1xx_hal_msp.c ****   }
 170:Core/Src/stm32f1xx_hal_msp.c **** 
 171:Core/Src/stm32f1xx_hal_msp.c **** }
 308              		.loc 1 171 1 is_stmt 0 view .LVU84
 309 002c 10BD     		pop	{r4, pc}
 310              	.LVL17:
 311              	.L21:
 312              		.loc 1 171 1 view .LVU85
 313 002e 00BF     		.align	2
 314              	.L20:
 315 0030 00240140 		.word	1073816576
 316 0034 00100240 		.word	1073876992
 317 0038 00080140 		.word	1073809408
 318              		.cfi_endproc
 319              	.LFE67:
 321              		.section	.text.HAL_TIM_Base_MspInit,"ax",%progbits
 322              		.align	1
 323              		.global	HAL_TIM_Base_MspInit
 324              		.syntax unified
 325              		.thumb
 326              		.thumb_func
 328              	HAL_TIM_Base_MspInit:
 329              	.LVL18:
 330              	.LFB68:
 172:Core/Src/stm32f1xx_hal_msp.c **** 
 173:Core/Src/stm32f1xx_hal_msp.c **** /**
 174:Core/Src/stm32f1xx_hal_msp.c ****   * @brief TIM_Base MSP Initialization
 175:Core/Src/stm32f1xx_hal_msp.c ****   * This function configures the hardware resources used in this example
 176:Core/Src/stm32f1xx_hal_msp.c ****   * @param htim_base: TIM_Base handle pointer
 177:Core/Src/stm32f1xx_hal_msp.c ****   * @retval None
 178:Core/Src/stm32f1xx_hal_msp.c ****   */
 179:Core/Src/stm32f1xx_hal_msp.c **** void HAL_TIM_Base_MspInit(TIM_HandleTypeDef* htim_base)
 180:Core/Src/stm32f1xx_hal_msp.c **** {
 331              		.loc 1 180 1 is_stmt 1 view -0
 332              		.cfi_startproc
 333              		@ args = 0, pretend = 0, frame = 8
 334              		@ frame_needed = 0, uses_anonymous_args = 0
 181:Core/Src/stm32f1xx_hal_msp.c ****   if(htim_base->Instance==TIM1)
 335              		.loc 1 181 3 view .LVU87
 336              		.loc 1 181 15 is_stmt 0 view .LVU88
 337 0000 0268     		ldr	r2, [r0]
 338              		.loc 1 181 5 view .LVU89
 339 0002 164B     		ldr	r3, .L29
 340 0004 9A42     		cmp	r2, r3
 341 0006 00D0     		beq	.L28
 342 0008 7047     		bx	lr
 343              	.L28:
 180:Core/Src/stm32f1xx_hal_msp.c ****   if(htim_base->Instance==TIM1)
 344              		.loc 1 180 1 view .LVU90
 345 000a 00B5     		push	{lr}
 346              		.cfi_def_cfa_offset 4
 347              		.cfi_offset 14, -4
 348 000c 83B0     		sub	sp, sp, #12
 349              		.cfi_def_cfa_offset 16
 182:Core/Src/stm32f1xx_hal_msp.c ****   {
ARM GAS  C:\Users\kroko\AppData\Local\Temp\ccJgzJ2r.s 			page 11


 183:Core/Src/stm32f1xx_hal_msp.c ****     /* USER CODE BEGIN TIM1_MspInit 0 */
 184:Core/Src/stm32f1xx_hal_msp.c **** 
 185:Core/Src/stm32f1xx_hal_msp.c ****     /* USER CODE END TIM1_MspInit 0 */
 186:Core/Src/stm32f1xx_hal_msp.c ****     /* Peripheral clock enable */
 187:Core/Src/stm32f1xx_hal_msp.c ****     __HAL_RCC_TIM1_CLK_ENABLE();
 350              		.loc 1 187 5 is_stmt 1 view .LVU91
 351              	.LBB7:
 352              		.loc 1 187 5 view .LVU92
 353              		.loc 1 187 5 view .LVU93
 354 000e 03F56443 		add	r3, r3, #58368
 355 0012 9A69     		ldr	r2, [r3, #24]
 356 0014 42F40062 		orr	r2, r2, #2048
 357 0018 9A61     		str	r2, [r3, #24]
 358              		.loc 1 187 5 view .LVU94
 359 001a 9B69     		ldr	r3, [r3, #24]
 360 001c 03F40063 		and	r3, r3, #2048
 361 0020 0193     		str	r3, [sp, #4]
 362              		.loc 1 187 5 view .LVU95
 363 0022 019B     		ldr	r3, [sp, #4]
 364              	.LBE7:
 365              		.loc 1 187 5 view .LVU96
 188:Core/Src/stm32f1xx_hal_msp.c ****     /* TIM1 interrupt Init */
 189:Core/Src/stm32f1xx_hal_msp.c ****     HAL_NVIC_SetPriority(TIM1_BRK_IRQn, 0, 0);
 366              		.loc 1 189 5 view .LVU97
 367 0024 0022     		movs	r2, #0
 368 0026 1146     		mov	r1, r2
 369 0028 1820     		movs	r0, #24
 370              	.LVL19:
 371              		.loc 1 189 5 is_stmt 0 view .LVU98
 372 002a FFF7FEFF 		bl	HAL_NVIC_SetPriority
 373              	.LVL20:
 190:Core/Src/stm32f1xx_hal_msp.c ****     HAL_NVIC_EnableIRQ(TIM1_BRK_IRQn);
 374              		.loc 1 190 5 is_stmt 1 view .LVU99
 375 002e 1820     		movs	r0, #24
 376 0030 FFF7FEFF 		bl	HAL_NVIC_EnableIRQ
 377              	.LVL21:
 191:Core/Src/stm32f1xx_hal_msp.c ****     HAL_NVIC_SetPriority(TIM1_UP_IRQn, 0, 0);
 378              		.loc 1 191 5 view .LVU100
 379 0034 0022     		movs	r2, #0
 380 0036 1146     		mov	r1, r2
 381 0038 1920     		movs	r0, #25
 382 003a FFF7FEFF 		bl	HAL_NVIC_SetPriority
 383              	.LVL22:
 192:Core/Src/stm32f1xx_hal_msp.c ****     HAL_NVIC_EnableIRQ(TIM1_UP_IRQn);
 384              		.loc 1 192 5 view .LVU101
 385 003e 1920     		movs	r0, #25
 386 0040 FFF7FEFF 		bl	HAL_NVIC_EnableIRQ
 387              	.LVL23:
 193:Core/Src/stm32f1xx_hal_msp.c ****     HAL_NVIC_SetPriority(TIM1_TRG_COM_IRQn, 0, 0);
 388              		.loc 1 193 5 view .LVU102
 389 0044 0022     		movs	r2, #0
 390 0046 1146     		mov	r1, r2
 391 0048 1A20     		movs	r0, #26
 392 004a FFF7FEFF 		bl	HAL_NVIC_SetPriority
 393              	.LVL24:
 194:Core/Src/stm32f1xx_hal_msp.c ****     HAL_NVIC_EnableIRQ(TIM1_TRG_COM_IRQn);
 394              		.loc 1 194 5 view .LVU103
ARM GAS  C:\Users\kroko\AppData\Local\Temp\ccJgzJ2r.s 			page 12


 395 004e 1A20     		movs	r0, #26
 396 0050 FFF7FEFF 		bl	HAL_NVIC_EnableIRQ
 397              	.LVL25:
 195:Core/Src/stm32f1xx_hal_msp.c ****     /* USER CODE BEGIN TIM1_MspInit 1 */
 196:Core/Src/stm32f1xx_hal_msp.c **** 
 197:Core/Src/stm32f1xx_hal_msp.c ****     /* USER CODE END TIM1_MspInit 1 */
 198:Core/Src/stm32f1xx_hal_msp.c **** 
 199:Core/Src/stm32f1xx_hal_msp.c ****   }
 200:Core/Src/stm32f1xx_hal_msp.c **** 
 201:Core/Src/stm32f1xx_hal_msp.c **** }
 398              		.loc 1 201 1 is_stmt 0 view .LVU104
 399 0054 03B0     		add	sp, sp, #12
 400              		.cfi_def_cfa_offset 4
 401              		@ sp needed
 402 0056 5DF804FB 		ldr	pc, [sp], #4
 403              	.L30:
 404 005a 00BF     		.align	2
 405              	.L29:
 406 005c 002C0140 		.word	1073818624
 407              		.cfi_endproc
 408              	.LFE68:
 410              		.section	.text.HAL_TIM_MspPostInit,"ax",%progbits
 411              		.align	1
 412              		.global	HAL_TIM_MspPostInit
 413              		.syntax unified
 414              		.thumb
 415              		.thumb_func
 417              	HAL_TIM_MspPostInit:
 418              	.LVL26:
 419              	.LFB69:
 202:Core/Src/stm32f1xx_hal_msp.c **** 
 203:Core/Src/stm32f1xx_hal_msp.c **** void HAL_TIM_MspPostInit(TIM_HandleTypeDef* htim)
 204:Core/Src/stm32f1xx_hal_msp.c **** {
 420              		.loc 1 204 1 is_stmt 1 view -0
 421              		.cfi_startproc
 422              		@ args = 0, pretend = 0, frame = 24
 423              		@ frame_needed = 0, uses_anonymous_args = 0
 424              		.loc 1 204 1 is_stmt 0 view .LVU106
 425 0000 00B5     		push	{lr}
 426              		.cfi_def_cfa_offset 4
 427              		.cfi_offset 14, -4
 428 0002 87B0     		sub	sp, sp, #28
 429              		.cfi_def_cfa_offset 32
 205:Core/Src/stm32f1xx_hal_msp.c ****   GPIO_InitTypeDef GPIO_InitStruct = {0};
 430              		.loc 1 205 3 is_stmt 1 view .LVU107
 431              		.loc 1 205 20 is_stmt 0 view .LVU108
 432 0004 0023     		movs	r3, #0
 433 0006 0293     		str	r3, [sp, #8]
 434 0008 0393     		str	r3, [sp, #12]
 435 000a 0493     		str	r3, [sp, #16]
 436 000c 0593     		str	r3, [sp, #20]
 206:Core/Src/stm32f1xx_hal_msp.c ****   if(htim->Instance==TIM1)
 437              		.loc 1 206 3 is_stmt 1 view .LVU109
 438              		.loc 1 206 10 is_stmt 0 view .LVU110
 439 000e 0268     		ldr	r2, [r0]
 440              		.loc 1 206 5 view .LVU111
 441 0010 0D4B     		ldr	r3, .L35
ARM GAS  C:\Users\kroko\AppData\Local\Temp\ccJgzJ2r.s 			page 13


 442 0012 9A42     		cmp	r2, r3
 443 0014 02D0     		beq	.L34
 444              	.LVL27:
 445              	.L31:
 207:Core/Src/stm32f1xx_hal_msp.c ****   {
 208:Core/Src/stm32f1xx_hal_msp.c ****     /* USER CODE BEGIN TIM1_MspPostInit 0 */
 209:Core/Src/stm32f1xx_hal_msp.c **** 
 210:Core/Src/stm32f1xx_hal_msp.c ****     /* USER CODE END TIM1_MspPostInit 0 */
 211:Core/Src/stm32f1xx_hal_msp.c **** 
 212:Core/Src/stm32f1xx_hal_msp.c ****     __HAL_RCC_GPIOA_CLK_ENABLE();
 213:Core/Src/stm32f1xx_hal_msp.c ****     /**TIM1 GPIO Configuration
 214:Core/Src/stm32f1xx_hal_msp.c ****     PA8     ------> TIM1_CH1
 215:Core/Src/stm32f1xx_hal_msp.c ****     PA9     ------> TIM1_CH2
 216:Core/Src/stm32f1xx_hal_msp.c ****     PA10     ------> TIM1_CH3
 217:Core/Src/stm32f1xx_hal_msp.c ****     */
 218:Core/Src/stm32f1xx_hal_msp.c ****     GPIO_InitStruct.Pin = GPIO_PIN_8|GPIO_PIN_9|GPIO_PIN_10;
 219:Core/Src/stm32f1xx_hal_msp.c ****     GPIO_InitStruct.Mode = GPIO_MODE_AF_PP;
 220:Core/Src/stm32f1xx_hal_msp.c ****     GPIO_InitStruct.Speed = GPIO_SPEED_FREQ_LOW;
 221:Core/Src/stm32f1xx_hal_msp.c ****     HAL_GPIO_Init(GPIOA, &GPIO_InitStruct);
 222:Core/Src/stm32f1xx_hal_msp.c **** 
 223:Core/Src/stm32f1xx_hal_msp.c ****     /* USER CODE BEGIN TIM1_MspPostInit 1 */
 224:Core/Src/stm32f1xx_hal_msp.c **** 
 225:Core/Src/stm32f1xx_hal_msp.c ****     /* USER CODE END TIM1_MspPostInit 1 */
 226:Core/Src/stm32f1xx_hal_msp.c ****   }
 227:Core/Src/stm32f1xx_hal_msp.c **** 
 228:Core/Src/stm32f1xx_hal_msp.c **** }
 446              		.loc 1 228 1 view .LVU112
 447 0016 07B0     		add	sp, sp, #28
 448              		.cfi_remember_state
 449              		.cfi_def_cfa_offset 4
 450              		@ sp needed
 451 0018 5DF804FB 		ldr	pc, [sp], #4
 452              	.LVL28:
 453              	.L34:
 454              		.cfi_restore_state
 212:Core/Src/stm32f1xx_hal_msp.c ****     /**TIM1 GPIO Configuration
 455              		.loc 1 212 5 is_stmt 1 view .LVU113
 456              	.LBB8:
 212:Core/Src/stm32f1xx_hal_msp.c ****     /**TIM1 GPIO Configuration
 457              		.loc 1 212 5 view .LVU114
 212:Core/Src/stm32f1xx_hal_msp.c ****     /**TIM1 GPIO Configuration
 458              		.loc 1 212 5 view .LVU115
 459 001c 03F56443 		add	r3, r3, #58368
 460 0020 9A69     		ldr	r2, [r3, #24]
 461 0022 42F00402 		orr	r2, r2, #4
 462 0026 9A61     		str	r2, [r3, #24]
 212:Core/Src/stm32f1xx_hal_msp.c ****     /**TIM1 GPIO Configuration
 463              		.loc 1 212 5 view .LVU116
 464 0028 9B69     		ldr	r3, [r3, #24]
 465 002a 03F00403 		and	r3, r3, #4
 466 002e 0193     		str	r3, [sp, #4]
 212:Core/Src/stm32f1xx_hal_msp.c ****     /**TIM1 GPIO Configuration
 467              		.loc 1 212 5 view .LVU117
 468 0030 019B     		ldr	r3, [sp, #4]
 469              	.LBE8:
 212:Core/Src/stm32f1xx_hal_msp.c ****     /**TIM1 GPIO Configuration
 470              		.loc 1 212 5 view .LVU118
ARM GAS  C:\Users\kroko\AppData\Local\Temp\ccJgzJ2r.s 			page 14


 218:Core/Src/stm32f1xx_hal_msp.c ****     GPIO_InitStruct.Mode = GPIO_MODE_AF_PP;
 471              		.loc 1 218 5 view .LVU119
 218:Core/Src/stm32f1xx_hal_msp.c ****     GPIO_InitStruct.Mode = GPIO_MODE_AF_PP;
 472              		.loc 1 218 25 is_stmt 0 view .LVU120
 473 0032 4FF4E063 		mov	r3, #1792
 474 0036 0293     		str	r3, [sp, #8]
 219:Core/Src/stm32f1xx_hal_msp.c ****     GPIO_InitStruct.Speed = GPIO_SPEED_FREQ_LOW;
 475              		.loc 1 219 5 is_stmt 1 view .LVU121
 219:Core/Src/stm32f1xx_hal_msp.c ****     GPIO_InitStruct.Speed = GPIO_SPEED_FREQ_LOW;
 476              		.loc 1 219 26 is_stmt 0 view .LVU122
 477 0038 0223     		movs	r3, #2
 478 003a 0393     		str	r3, [sp, #12]
 220:Core/Src/stm32f1xx_hal_msp.c ****     HAL_GPIO_Init(GPIOA, &GPIO_InitStruct);
 479              		.loc 1 220 5 is_stmt 1 view .LVU123
 220:Core/Src/stm32f1xx_hal_msp.c ****     HAL_GPIO_Init(GPIOA, &GPIO_InitStruct);
 480              		.loc 1 220 27 is_stmt 0 view .LVU124
 481 003c 0593     		str	r3, [sp, #20]
 221:Core/Src/stm32f1xx_hal_msp.c **** 
 482              		.loc 1 221 5 is_stmt 1 view .LVU125
 483 003e 02A9     		add	r1, sp, #8
 484 0040 0248     		ldr	r0, .L35+4
 485              	.LVL29:
 221:Core/Src/stm32f1xx_hal_msp.c **** 
 486              		.loc 1 221 5 is_stmt 0 view .LVU126
 487 0042 FFF7FEFF 		bl	HAL_GPIO_Init
 488              	.LVL30:
 489              		.loc 1 228 1 view .LVU127
 490 0046 E6E7     		b	.L31
 491              	.L36:
 492              		.align	2
 493              	.L35:
 494 0048 002C0140 		.word	1073818624
 495 004c 00080140 		.word	1073809408
 496              		.cfi_endproc
 497              	.LFE69:
 499              		.section	.text.HAL_TIM_Base_MspDeInit,"ax",%progbits
 500              		.align	1
 501              		.global	HAL_TIM_Base_MspDeInit
 502              		.syntax unified
 503              		.thumb
 504              		.thumb_func
 506              	HAL_TIM_Base_MspDeInit:
 507              	.LVL31:
 508              	.LFB70:
 229:Core/Src/stm32f1xx_hal_msp.c **** /**
 230:Core/Src/stm32f1xx_hal_msp.c ****   * @brief TIM_Base MSP De-Initialization
 231:Core/Src/stm32f1xx_hal_msp.c ****   * This function freeze the hardware resources used in this example
 232:Core/Src/stm32f1xx_hal_msp.c ****   * @param htim_base: TIM_Base handle pointer
 233:Core/Src/stm32f1xx_hal_msp.c ****   * @retval None
 234:Core/Src/stm32f1xx_hal_msp.c ****   */
 235:Core/Src/stm32f1xx_hal_msp.c **** void HAL_TIM_Base_MspDeInit(TIM_HandleTypeDef* htim_base)
 236:Core/Src/stm32f1xx_hal_msp.c **** {
 509              		.loc 1 236 1 is_stmt 1 view -0
 510              		.cfi_startproc
 511              		@ args = 0, pretend = 0, frame = 0
 512              		@ frame_needed = 0, uses_anonymous_args = 0
 513              		.loc 1 236 1 is_stmt 0 view .LVU129
ARM GAS  C:\Users\kroko\AppData\Local\Temp\ccJgzJ2r.s 			page 15


 514 0000 08B5     		push	{r3, lr}
 515              		.cfi_def_cfa_offset 8
 516              		.cfi_offset 3, -8
 517              		.cfi_offset 14, -4
 237:Core/Src/stm32f1xx_hal_msp.c ****   if(htim_base->Instance==TIM1)
 518              		.loc 1 237 3 is_stmt 1 view .LVU130
 519              		.loc 1 237 15 is_stmt 0 view .LVU131
 520 0002 0268     		ldr	r2, [r0]
 521              		.loc 1 237 5 view .LVU132
 522 0004 094B     		ldr	r3, .L41
 523 0006 9A42     		cmp	r2, r3
 524 0008 00D0     		beq	.L40
 525              	.LVL32:
 526              	.L37:
 238:Core/Src/stm32f1xx_hal_msp.c ****   {
 239:Core/Src/stm32f1xx_hal_msp.c ****     /* USER CODE BEGIN TIM1_MspDeInit 0 */
 240:Core/Src/stm32f1xx_hal_msp.c **** 
 241:Core/Src/stm32f1xx_hal_msp.c ****     /* USER CODE END TIM1_MspDeInit 0 */
 242:Core/Src/stm32f1xx_hal_msp.c ****     /* Peripheral clock disable */
 243:Core/Src/stm32f1xx_hal_msp.c ****     __HAL_RCC_TIM1_CLK_DISABLE();
 244:Core/Src/stm32f1xx_hal_msp.c **** 
 245:Core/Src/stm32f1xx_hal_msp.c ****     /* TIM1 interrupt DeInit */
 246:Core/Src/stm32f1xx_hal_msp.c ****     HAL_NVIC_DisableIRQ(TIM1_BRK_IRQn);
 247:Core/Src/stm32f1xx_hal_msp.c ****     HAL_NVIC_DisableIRQ(TIM1_UP_IRQn);
 248:Core/Src/stm32f1xx_hal_msp.c ****     HAL_NVIC_DisableIRQ(TIM1_TRG_COM_IRQn);
 249:Core/Src/stm32f1xx_hal_msp.c ****     /* USER CODE BEGIN TIM1_MspDeInit 1 */
 250:Core/Src/stm32f1xx_hal_msp.c **** 
 251:Core/Src/stm32f1xx_hal_msp.c ****     /* USER CODE END TIM1_MspDeInit 1 */
 252:Core/Src/stm32f1xx_hal_msp.c ****   }
 253:Core/Src/stm32f1xx_hal_msp.c **** 
 254:Core/Src/stm32f1xx_hal_msp.c **** }
 527              		.loc 1 254 1 view .LVU133
 528 000a 08BD     		pop	{r3, pc}
 529              	.LVL33:
 530              	.L40:
 243:Core/Src/stm32f1xx_hal_msp.c **** 
 531              		.loc 1 243 5 is_stmt 1 view .LVU134
 532 000c 084A     		ldr	r2, .L41+4
 533 000e 9369     		ldr	r3, [r2, #24]
 534 0010 23F40063 		bic	r3, r3, #2048
 535 0014 9361     		str	r3, [r2, #24]
 246:Core/Src/stm32f1xx_hal_msp.c ****     HAL_NVIC_DisableIRQ(TIM1_UP_IRQn);
 536              		.loc 1 246 5 view .LVU135
 537 0016 1820     		movs	r0, #24
 538              	.LVL34:
 246:Core/Src/stm32f1xx_hal_msp.c ****     HAL_NVIC_DisableIRQ(TIM1_UP_IRQn);
 539              		.loc 1 246 5 is_stmt 0 view .LVU136
 540 0018 FFF7FEFF 		bl	HAL_NVIC_DisableIRQ
 541              	.LVL35:
 247:Core/Src/stm32f1xx_hal_msp.c ****     HAL_NVIC_DisableIRQ(TIM1_TRG_COM_IRQn);
 542              		.loc 1 247 5 is_stmt 1 view .LVU137
 543 001c 1920     		movs	r0, #25
 544 001e FFF7FEFF 		bl	HAL_NVIC_DisableIRQ
 545              	.LVL36:
 248:Core/Src/stm32f1xx_hal_msp.c ****     /* USER CODE BEGIN TIM1_MspDeInit 1 */
 546              		.loc 1 248 5 view .LVU138
 547 0022 1A20     		movs	r0, #26
ARM GAS  C:\Users\kroko\AppData\Local\Temp\ccJgzJ2r.s 			page 16


 548 0024 FFF7FEFF 		bl	HAL_NVIC_DisableIRQ
 549              	.LVL37:
 550              		.loc 1 254 1 is_stmt 0 view .LVU139
 551 0028 EFE7     		b	.L37
 552              	.L42:
 553 002a 00BF     		.align	2
 554              	.L41:
 555 002c 002C0140 		.word	1073818624
 556 0030 00100240 		.word	1073876992
 557              		.cfi_endproc
 558              	.LFE70:
 560              		.text
 561              	.Letext0:
 562              		.file 2 "Drivers/CMSIS/Device/ST/STM32F1xx/Include/stm32f103xb.h"
 563              		.file 3 "C:/Program Files (x86)/Arm GNU Toolchain arm-none-eabi/14.2 rel1/arm-none-eabi/include/ma
 564              		.file 4 "C:/Program Files (x86)/Arm GNU Toolchain arm-none-eabi/14.2 rel1/arm-none-eabi/include/sy
 565              		.file 5 "Drivers/CMSIS/Device/ST/STM32F1xx/Include/stm32f1xx.h"
 566              		.file 6 "Drivers/STM32F1xx_HAL_Driver/Inc/stm32f1xx_hal_def.h"
 567              		.file 7 "Drivers/STM32F1xx_HAL_Driver/Inc/stm32f1xx_hal_gpio.h"
 568              		.file 8 "Drivers/STM32F1xx_HAL_Driver/Inc/stm32f1xx_hal_dma.h"
 569              		.file 9 "Drivers/STM32F1xx_HAL_Driver/Inc/stm32f1xx_hal_adc.h"
 570              		.file 10 "Drivers/STM32F1xx_HAL_Driver/Inc/stm32f1xx_hal_tim.h"
 571              		.file 11 "Drivers/STM32F1xx_HAL_Driver/Inc/stm32f1xx_hal_cortex.h"
 572              		.file 12 "Core/Inc/main.h"
ARM GAS  C:\Users\kroko\AppData\Local\Temp\ccJgzJ2r.s 			page 17

